target datalayout = "e-m:e-p270:32:32-p271:32:32-p272:64:64-i64:64-i128:128-f80:128-n8:16:32:64-S128"
target triple = "x86_64-pc-linux-gnu"

%"class.Ipopt::SmartPtr.10" = type { ptr }
%"class.Ipopt::SmartPtr.11" = type { ptr }
%"class.Ipopt::IndexPCalculator" = type { %"class.Ipopt::PCalculator", i32, i32, %"class.std::map" }
%"class.Ipopt::PCalculator" = type { %"class.Ipopt::AlgorithmStrategyObject.base", %"class.Ipopt::SmartPtr.10", %"class.Ipopt::SmartPtr.16", %"class.Ipopt::SmartPtr.11" }
%"class.Ipopt::AlgorithmStrategyObject.base" = type <{ %"class.Ipopt::ReferencedObject.base", [4 x i8], %"class.Ipopt::SmartPtr.12", %"class.Ipopt::SmartPtr.13", %"class.Ipopt::SmartPtr.14", %"class.Ipopt::SmartPtr.15", i8 }>
%"class.Ipopt::ReferencedObject.base" = type <{ ptr, i32 }>
%"class.Ipopt::SmartPtr.12" = type { ptr }
%"class.Ipopt::SmartPtr.13" = type { ptr }
%"class.Ipopt::SmartPtr.14" = type { ptr }
%"class.Ipopt::SmartPtr.15" = type { ptr }
%"class.Ipopt::SmartPtr.16" = type { ptr }
%"class.std::map" = type { %"class.std::_Rb_tree" }
%"class.std::_Rb_tree" = type { %"struct.std::_Rb_tree<int, std::pair<const int, Ipopt::SmartPtr<Ipopt::PColumn>>, std::_Select1st<std::pair<const int, Ipopt::SmartPtr<Ipopt::PColumn>>>, std::less<int>>::_Rb_tree_impl" }
%"struct.std::_Rb_tree<int, std::pair<const int, Ipopt::SmartPtr<Ipopt::PColumn>>, std::_Select1st<std::pair<const int, Ipopt::SmartPtr<Ipopt::PColumn>>>, std::less<int>>::_Rb_tree_impl" = type { [8 x i8], %"struct.std::_Rb_tree_header" }
%"struct.std::_Rb_tree_header" = type { %"struct.std::_Rb_tree_node_base", i64 }
%"struct.std::_Rb_tree_node_base" = type { i32, ptr, ptr, ptr }

; Function Attrs: mustprogress nounwind uwtable
define linkonce_odr noundef ptr @_ZNKSt8_Rb_treeIiSt4pairIKiN5Ipopt8SmartPtrINS2_7PColumnEEEESt10_Select1stIS6_ESt4lessIiESaIS6_EE9_M_mbeginEv(ptr noundef nonnull align 8 dereferenceable(48) %0) #6 comdat align 2 {
  %2 = alloca ptr, align 8
  store ptr %0, ptr %2, align 8, !tbaa !233
  %3 = load ptr, ptr %2, align 8
  %4 = getelementptr inbounds nuw %"class.std::_Rb_tree", ptr %3, i32 0, i32 0
  %5 = getelementptr inbounds i8, ptr %4, i64 8
  %6 = getelementptr inbounds nuw %"struct.std::_Rb_tree_header", ptr %5, i32 0, i32 0
  %7 = getelementptr inbounds nuw %"struct.std::_Rb_tree_node_base", ptr %6, i32 0, i32 1
  %8 = load ptr, ptr %7, align 8, !tbaa !246
  ret ptr %8
}

; Function Attrs: mustprogress nounwind uwtable
define linkonce_odr void @_ZNSt15__new_allocatorISt13_Rb_tree_nodeISt4pairIKiN5Ipopt8SmartPtrINS3_7PColumnEEEEEED2Ev(ptr noundef nonnull align 1 dereferenceable(1) %0) unnamed_addr #6 comdat align 2 {
  %2 = alloca ptr, align 8
  store ptr %0, ptr %2, align 8, !tbaa !244
  ret void
}

; Function Attrs: mustprogress nounwind uwtable
define linkonce_odr noundef ptr @_ZNSt8_Rb_treeIiSt4pairIKiN5Ipopt8SmartPtrINS2_7PColumnEEEESt10_Select1stIS6_ESt4lessIiESaIS6_EE8_M_beginEv(ptr noundef nonnull align 8 dereferenceable(48) %0) #6 comdat align 2 {
  %2 = alloca ptr, align 8
  store ptr %0, ptr %2, align 8, !tbaa !233
  %3 = load ptr, ptr %2, align 8
  %4 = call noundef ptr @_ZNKSt8_Rb_treeIiSt4pairIKiN5Ipopt8SmartPtrINS2_7PColumnEEEESt10_Select1stIS6_ESt4lessIiESaIS6_EE9_M_mbeginEv(ptr noundef nonnull align 8 dereferenceable(48) %3) #3
  ret ptr %4
}

; Function Attrs: mustprogress nounwind uwtable
define linkonce_odr void @_ZNSt8_Rb_treeIiSt4pairIKiN5Ipopt8SmartPtrINS2_7PColumnEEEESt10_Select1stIS6_ESt4lessIiESaIS6_EED2Ev(ptr noundef nonnull align 8 dereferenceable(48) %0) unnamed_addr #6 comdat align 2 personality ptr @__gxx_personality_v0 {
  %2 = alloca ptr, align 8
  store ptr %0, ptr %2, align 8, !tbaa !233
  %3 = load ptr, ptr %2, align 8
  %4 = call noundef ptr @_ZNSt8_Rb_treeIiSt4pairIKiN5Ipopt8SmartPtrINS2_7PColumnEEEESt10_Select1stIS6_ESt4lessIiESaIS6_EE8_M_beginEv(ptr noundef nonnull align 8 dereferenceable(48) %3) #3
  invoke void @_ZNSt8_Rb_treeIiSt4pairIKiN5Ipopt8SmartPtrINS2_7PColumnEEEESt10_Select1stIS6_ESt4lessIiESaIS6_EE8_M_eraseEPSt13_Rb_tree_nodeIS6_E(ptr noundef nonnull align 8 dereferenceable(48) %3, ptr noundef %4)
          to label %5 unwind label %7

5:                                                ; preds = %1
  %6 = getelementptr inbounds nuw %"class.std::_Rb_tree", ptr %3, i32 0, i32 0
  call void @_ZNSt15__new_allocatorISt13_Rb_tree_nodeISt4pairIKiN5Ipopt8SmartPtrINS3_7PColumnEEEEEED2Ev(ptr noundef nonnull align 8 dereferenceable(48) %6) #3
  ret void

7:                                                ; preds = %1
  %8 = landingpad { ptr, i32 }
          catch ptr null
  %9 = extractvalue { ptr, i32 } %8, 0
  call void @__clang_call_terminate(ptr %9) #20
  unreachable
}

; Function Attrs: mustprogress nounwind uwtable
define linkonce_odr void @_ZNSt3mapIiN5Ipopt8SmartPtrINS0_7PColumnEEESt4lessIiESaISt4pairIKiS3_EEED2Ev(ptr noundef nonnull align 8 dereferenceable(48) %0) unnamed_addr #6 comdat align 2 {
  %2 = alloca ptr, align 8
  store ptr %0, ptr %2, align 8, !tbaa !49
  %3 = load ptr, ptr %2, align 8
  %4 = getelementptr inbounds nuw %"class.std::map", ptr %3, i32 0, i32 0
  call void @_ZNSt8_Rb_treeIiSt4pairIKiN5Ipopt8SmartPtrINS2_7PColumnEEEESt10_Select1stIS6_ESt4lessIiESaIS6_EED2Ev(ptr noundef nonnull align 8 dereferenceable(48) %4) #3
  ret void
}

; Function Attrs: mustprogress nounwind uwtable
define void @_ZN5Ipopt16IndexPCalculatorD2Ev(ptr noundef nonnull align 8 dereferenceable(136) %0) unnamed_addr #6 align 2 {
  %2 = alloca ptr, align 8
  store ptr %0, ptr %2, align 8, !tbaa !3
  %3 = load ptr, ptr %2, align 8
  store ptr getelementptr inbounds inrange(-16, 48) ({ [8 x ptr] }, ptr @_ZTVN5Ipopt16IndexPCalculatorE, i32 0, i32 0, i32 2), ptr %3, align 8, !tbaa !12
  %4 = getelementptr inbounds nuw %"class.Ipopt::IndexPCalculator", ptr %3, i32 0, i32 3
  call void @_ZNSt3mapIiN5Ipopt8SmartPtrINS0_7PColumnEEESt4lessIiESaISt4pairIKiS3_EEED2Ev(ptr noundef nonnull align 8 dereferenceable(48) %4) #3
  call void @_ZN5Ipopt11PCalculatorD2Ev(ptr noundef nonnull align 8 dereferenceable(80) %3) #3
  ret void
}