; Function Attrs: mustprogress nounwind uwtable
define void @_ZN5Ipopt16IndexPCalculatorD2Ev(ptr noundef nonnull align 8 dereferenceable(136) initializes((0, 8)) %0) unnamed_addr #5 align 2 personality ptr @__gxx_personality_v0 {
  store ptr getelementptr inbounds nuw inrange(-16, 48) (i8, ptr @_ZTVN5Ipopt16IndexPCalculatorE, i64 16), ptr %0, align 8, !tbaa !15
  %2 = getelementptr inbounds nuw i8, ptr %0, i64 88
  %3 = getelementptr inbounds nuw i8, ptr %0, i64 104
  %4 = load ptr, ptr %3, align 8, !tbaa !47
  invoke void @_ZNSt8_Rb_treeIiSt4pairIKiN5Ipopt8SmartPtrINS2_7PColumnEEEESt10_Select1stIS6_ESt4lessIiESaIS6_EE8_M_eraseEPSt13_Rb_tree_nodeIS6_E(ptr noundef nonnull align 8 dereferenceable(48) %2, ptr noundef %4)
          to label %_ZNSt3mapIiN5Ipopt8SmartPtrINS0_7PColumnEEESt4lessIiESaISt4pairIKiS3_EEED2Ev.exit unwind label %5

5:                                                ; preds = %1
  %6 = landingpad { ptr, i32 }
          catch ptr null
  %7 = extractvalue { ptr, i32 } %6, 0
  tail call void @__clang_call_terminate(ptr %7) #23
  unreachable

_ZNSt3mapIiN5Ipopt8SmartPtrINS0_7PColumnEEESt4lessIiESaISt4pairIKiS3_EEED2Ev.exit: ; preds = %1
  tail call void @_ZN5Ipopt11PCalculatorD2Ev(ptr noundef nonnull align 8 dereferenceable(80) %0) #22
  ret void
}